###############################################################################
#                                                                             #
# IAR ELF Linker V5.40.5.51622/W32 for ARM              25/Nov/2015  04:19:57 #
# Copyright (C) 2007-2009 IAR Systems AB.                                     #
#                                                                             #
#    Output file  =  D:\Documents\Academics\ELEC3300\Lab\SmartHouse-System\Pr #
#                    oject\EWARMv5\STM3210E debug\Exe\STM3210E-EVAL.out       #
#    Map file     =  D:\Documents\Academics\ELEC3300\Lab\SmartHouse-System\Pr #
#                    oject\EWARMv5\STM3210E debug\List\STM3210E-EVAL.map      #
#    Command line =  "D:\Documents\Academics\ELEC3300\Lab\SmartHouse-System\P #
#                    roject\EWARMv5\STM3210E debug\Obj\app.o"                 #
#                    "D:\Documents\Academics\ELEC3300\Lab\SmartHouse-System\P #
#                    roject\EWARMv5\STM3210E debug\Obj\bsp.o"                 #
#                    "D:\Documents\Academics\ELEC3300\Lab\SmartHouse-System\P #
#                    roject\EWARMv5\STM3210E debug\Obj\core_cm3.o"            #
#                    "D:\Documents\Academics\ELEC3300\Lab\SmartHouse-System\P #
#                    roject\EWARMv5\STM3210E debug\Obj\fingerprint.o"         #
#                    "D:\Documents\Academics\ELEC3300\Lab\SmartHouse-System\P #
#                    roject\EWARMv5\STM3210E debug\Obj\lcd.o"                 #
#                    "D:\Documents\Academics\ELEC3300\Lab\SmartHouse-System\P #
#                    roject\EWARMv5\STM3210E debug\Obj\main.o"                #
#                    "D:\Documents\Academics\ELEC3300\Lab\SmartHouse-System\P #
#                    roject\EWARMv5\STM3210E debug\Obj\misc.o"                #
#                    "D:\Documents\Academics\ELEC3300\Lab\SmartHouse-System\P #
#                    roject\EWARMv5\STM3210E debug\Obj\os_core.o"             #
#                    "D:\Documents\Academics\ELEC3300\Lab\SmartHouse-System\P #
#                    roject\EWARMv5\STM3210E debug\Obj\os_cpu_a.o"            #
#                    "D:\Documents\Academics\ELEC3300\Lab\SmartHouse-System\P #
#                    roject\EWARMv5\STM3210E debug\Obj\os_cpu_c.o"            #
#                    "D:\Documents\Academics\ELEC3300\Lab\SmartHouse-System\P #
#                    roject\EWARMv5\STM3210E debug\Obj\os_dbg.o"              #
#                    "D:\Documents\Academics\ELEC3300\Lab\SmartHouse-System\P #
#                    roject\EWARMv5\STM3210E debug\Obj\os_flag.o"             #
#                    "D:\Documents\Academics\ELEC3300\Lab\SmartHouse-System\P #
#                    roject\EWARMv5\STM3210E debug\Obj\os_mbox.o"             #
#                    "D:\Documents\Academics\ELEC3300\Lab\SmartHouse-System\P #
#                    roject\EWARMv5\STM3210E debug\Obj\os_mem.o"              #
#                    "D:\Documents\Academics\ELEC3300\Lab\SmartHouse-System\P #
#                    roject\EWARMv5\STM3210E debug\Obj\os_mutex.o"            #
#                    "D:\Documents\Academics\ELEC3300\Lab\SmartHouse-System\P #
#                    roject\EWARMv5\STM3210E debug\Obj\os_q.o"                #
#                    "D:\Documents\Academics\ELEC3300\Lab\SmartHouse-System\P #
#                    roject\EWARMv5\STM3210E debug\Obj\os_sem.o"              #
#                    "D:\Documents\Academics\ELEC3300\Lab\SmartHouse-System\P #
#                    roject\EWARMv5\STM3210E debug\Obj\os_task.o"             #
#                    "D:\Documents\Academics\ELEC3300\Lab\SmartHouse-System\P #
#                    roject\EWARMv5\STM3210E debug\Obj\os_time.o"             #
#                    "D:\Documents\Academics\ELEC3300\Lab\SmartHouse-System\P #
#                    roject\EWARMv5\STM3210E debug\Obj\os_tmr.o"              #
#                    "D:\Documents\Academics\ELEC3300\Lab\SmartHouse-System\P #
#                    roject\EWARMv5\STM3210E debug\Obj\startup_stm32f10x_hd.o #
#                    " "D:\Documents\Academics\ELEC3300\Lab\SmartHouse-System #
#                    \Project\EWARMv5\STM3210E debug\Obj\stm32f10x_adc.o"     #
#                    "D:\Documents\Academics\ELEC3300\Lab\SmartHouse-System\P #
#                    roject\EWARMv5\STM3210E debug\Obj\stm32f10x_exti.o"      #
#                    "D:\Documents\Academics\ELEC3300\Lab\SmartHouse-System\P #
#                    roject\EWARMv5\STM3210E debug\Obj\stm32f10x_fsmc.o"      #
#                    "D:\Documents\Academics\ELEC3300\Lab\SmartHouse-System\P #
#                    roject\EWARMv5\STM3210E debug\Obj\stm32f10x_gpio.o"      #
#                    "D:\Documents\Academics\ELEC3300\Lab\SmartHouse-System\P #
#                    roject\EWARMv5\STM3210E debug\Obj\stm32f10x_it.o"        #
#                    "D:\Documents\Academics\ELEC3300\Lab\SmartHouse-System\P #
#                    roject\EWARMv5\STM3210E debug\Obj\stm32f10x_rcc.o"       #
#                    "D:\Documents\Academics\ELEC3300\Lab\SmartHouse-System\P #
#                    roject\EWARMv5\STM3210E debug\Obj\stm32f10x_tim.o"       #
#                    "D:\Documents\Academics\ELEC3300\Lab\SmartHouse-System\P #
#                    roject\EWARMv5\STM3210E debug\Obj\stm32f10x_usart.o"     #
#                    "D:\Documents\Academics\ELEC3300\Lab\SmartHouse-System\P #
#                    roject\EWARMv5\STM3210E debug\Obj\system_stm32f10x.o"    #
#                    -o "D:\Documents\Academics\ELEC3300\Lab\SmartHouse-Syste #
#                    m\Project\EWARMv5\STM3210E debug\Exe\STM3210E-EVAL.out"  #
#                    --map "D:\Documents\Academics\ELEC3300\Lab\SmartHouse-Sy #
#                    stem\Project\EWARMv5\STM3210E                            #
#                    debug\List\STM3210E-EVAL.map" --config                   #
#                    D:\Documents\Academics\ELEC3300\Lab\SmartHouse-System\Pr #
#                    oject\EWARMv5\STM32F10x_FLASH.icf --semihosting --entry  #
#                    __iar_program_start                                      #
#                                                                             #
#                                                                             #
###############################################################################

*******************************************************************************
*** RUNTIME MODEL ATTRIBUTES
***

__endian      = little
__thumb_aware = enabled


*******************************************************************************
*** PLACEMENT SUMMARY
***

"A1":  place at 0x08000000 { ro section .intvec };
"P1":  place in [from 0x08000000 to 0x0807ffff] { ro };
"P2":  place in [from 0x20000000 to 0x2000ffff] {
          rw, block CSTACK, block HEAP };

  Section            Kind        Address    Size  Object
  -------            ----        -------    ----  ------
"A1":                                      0x130
  .intvec            ro code  0x08000000   0x130  startup_stm32f10x_hd.o [1]
                            - 0x08000130   0x130

"P1":                                     0x4cb7
  .text              ro code  0x08000130  0x100e  xprintffull.o [3]
  .text              ro code  0x08001140   0x724  os_core.o [1]
  .text              ro code  0x08001864   0x43a  app.o [1]
  .text              ro code  0x08001ca0   0x434  bsp.o [1]
  .text              ro code  0x080020d4   0x3dc  fingerprint.o [1]
  .text              ro code  0x080024b0   0x390  os_task.o [1]
  .text              ro code  0x08002840   0x334  stm32f10x_rcc.o [1]
  .text              ro code  0x08002b74   0x26c  lcd.o [1]
  .text              ro code  0x08002de0   0x246  DblDiv.o [4]
  .text              ro code  0x08003028   0x1b8  stm32f10x_gpio.o [1]
  .text              ro code  0x080031e0   0x1a2  DblMul.o [4]
  .text              ro code  0x08003384   0x192  stm32f10x_usart.o [1]
  .text              ro code  0x08003518   0x17e  DblSub.o [4]
  .text              ro code  0x08003698   0x16a  stm32f10x_adc.o [1]
  .text              ro code  0x08003804   0x150  system_stm32f10x.o [1]
  .text              ro code  0x08003954   0x134  os_time.o [1]
  .text              ro code  0x08003a88   0x12e  I64DivMod.o [4]
  .text              ro code  0x08003bb8   0x114  stm32f10x_fsmc.o [1]
  .text              ro code  0x08003ccc   0x10c  xdscale.o [3]
  .rodata            const    0x08003dd8   0x100  os_core.o [1]
  .text              ro code  0x08003ed8    0xe6  DblAdd.o [4]
  .text              ro code  0x08003fc0    0xbc  xxmemxmalloc.o [3]
  .text              ro code  0x0800407c    0xb4  xdnorm.o [3]
  .text              ro code  0x08004130    0xac  os_cpu_c.o [1]
  CODE               ro code  0x080041dc    0xa0  os_cpu_a.o [1]
  .text              ro code  0x0800427c    0x94  packbits_init2.o [4]
  .text              ro code  0x08004310    0x8c  xsyslock.o [3]
  .text              ro code  0x0800439c    0x88  misc.o [1]
  .text              ro code  0x08004424    0x88  xxmemxfree.o [3]
  .text              ro code  0x080044ac    0x7c  stm32f10x_it.o [1]
  .text              ro code  0x08004528    0x70  ABImemcpy.o [4]
  .text              ro code  0x08004598    0x6c  cppinit.o [3]
  .text              ro code  0x08004604    0x58  memchr.o [4]
  .text              ro code  0x0800465c    0x56  DblToI32.o [4]
  .text              ro code  0x080046b4    0x54  os_flag.o [1]
  .text              ro code  0x08004708    0x54  xencoding_sb.o [3]
  .rodata            const    0x0800475c    0x48  xlocale_c.o [3]
  .text              ro code  0x080047a4    0x36  strlen.o [4]
  .text              ro code  0x080047dc    0x30  MtxWrapper.o [3]
  .text              ro code  0x0800480c    0x2e  DblCmpLe.o [4]
  .text              ro code  0x0800483c    0x2e  DblCmpGe.o [4]
  .text              ro code  0x0800486c    0x2e  I32ToDbl.o [4]
  .text              ro code  0x0800489c    0x2c  main.o [1]
  .text              ro code  0x080048c8    0x28  xgetmemchunk.o [3]
  .rodata            const    0x080048f0    0x24  app.o [1]
  .iar.init_table    const    0x08004914    0x2c  - Linker created -
  .rodata            const    0x08004940    0x20  app.o [1]
  .text              ro code  0x08004960    0x20  printf.o [3]
  .text              ro code  0x08004980    0x20  data_init2.o [4]
  .text              ro code  0x080049a0    0x20  xmbtowc.o [3]
  .rodata            const    0x080049c0    0x1c  app.o [1]
  .rodata            const    0x080049dc    0x1c  app.o [1]
  .text              ro code  0x080049f8    0x1c  startup_stm32f10x_hd.o [1]
  .text              ro code  0x08004a14    0x1c  iarwstd.o [5]
  .text              ro code  0x08004a30    0x1a  xwctomb.o [3]
  .text              ro code  0x08004a4a    0x1a  zero_init2.o [4]
  .rodata            const    0x08004a64    0x18  app.o [1]
  .rodata            const    0x08004a7c    0x18  app.o [1]
  .text              ro code  0x08004a94    0x18  cmain.o [4]
  .text              ro code  0x08004aac    0x16  strchr.o [4]
  .text              ro code  0x08004ac2    0x16  xprout.o [3]
  .rodata            const    0x08004ad8    0x14  app.o [1]
  .rodata            const    0x08004aec    0x14  app.o [1]
  .text              ro code  0x08004b00    0x14  localeconv.o [3]
  .text              ro code  0x08004b14    0x14  exit.o [5]
  .text              ro code  0x08004b28    0x14  setlocale.o [3]
  .rodata            const    0x08004b3c    0x10  app.o [1]
  .rodata            const    0x08004b4c    0x10  app.o [1]
  .rodata            const    0x08004b5c    0x10  app.o [1]
  .rodata            const    0x08004b6c    0x10  os_core.o [1]
  .rodata            const    0x08004b7c    0x10  os_core.o [1]
  .rodata            const    0x08004b8c    0x10  xprintffull.o [3]
  .text              ro code  0x08004b9c     0xe  cexit.o [4]
  .text              ro code  0x08004baa     0xe  div.o [3]
  .rodata            const    0x08004bb8     0xc  app.o [1]
  .rodata            const    0x08004bc4     0xc  app.o [1]
  .rodata            const    0x08004bd0     0xc  app.o [1]
  .text              ro code  0x08004bdc     0xc  putchar.o [3]
  .text              ro code  0x08004be8     0xa  xmbcurmax.o [3]
  .rodata            const    0x08004bf4     0x8  xprintffull.o [3]
  .rodata            const    0x08004bfc     0x8  localeconv.o [3]
  .rodata            const    0x08004c04     0x8  localeconv.o [3]
  .rodata            const    0x08004c0c     0x8  xencoding_sb.o [3]
  .rodata            const    0x08004c14     0x8  xencoding_sb.o [3]
  .rodata            const    0x08004c1c     0x8  xlocale_c.o [3]
  .rodata            const    0x08004c24     0x8  xlocale_c.o [3]
  .text              ro code  0x08004c2c     0x6  exit.o [3]
  .rodata            const    0x08004c34     0x4  system_stm32f10x.o [1]
  .text              ro code  0x08004c38     0x2  I64DivZer.o [4]
  .text              ro code  0x08004c3a     0x4  startup_stm32f10x_hd.o [1]
  .text              ro code  0x08004c3e     0x4  startup_stm32f10x_hd.o [1]
  .text              ro code  0x08004c42     0x4  startup_stm32f10x_hd.o [1]
  .text              ro code  0x08004c46     0x4  startup_stm32f10x_hd.o [1]
  .text              ro code  0x08004c4a     0x4  startup_stm32f10x_hd.o [1]
  .text              ro code  0x08004c4e     0x4  startup_stm32f10x_hd.o [1]
  .text              ro code  0x08004c52     0x4  startup_stm32f10x_hd.o [1]
  .text              ro code  0x08004c56     0x4  startup_stm32f10x_hd.o [1]
  .text              ro code  0x08004c5a     0x4  startup_stm32f10x_hd.o [1]
  .text              ro code  0x08004c5e     0x4  startup_stm32f10x_hd.o [1]
  .text              ro code  0x08004c62     0x4  startup_stm32f10x_hd.o [1]
  .text              ro code  0x08004c66     0x4  startup_stm32f10x_hd.o [1]
  .text              ro code  0x08004c6a     0x4  startup_stm32f10x_hd.o [1]
  .text              ro code  0x08004c6e     0x4  startup_stm32f10x_hd.o [1]
  .text              ro code  0x08004c72     0x4  startup_stm32f10x_hd.o [1]
  .text              ro code  0x08004c76     0x4  startup_stm32f10x_hd.o [1]
  .text              ro code  0x08004c7a     0x4  startup_stm32f10x_hd.o [1]
  .text              ro code  0x08004c7e     0x4  startup_stm32f10x_hd.o [1]
  .text              ro code  0x08004c82     0x4  startup_stm32f10x_hd.o [1]
  .text              ro code  0x08004c86     0x4  startup_stm32f10x_hd.o [1]
  .text              ro code  0x08004c8a     0x4  startup_stm32f10x_hd.o [1]
  .text              ro code  0x08004c8e     0x4  startup_stm32f10x_hd.o [1]
  .text              ro code  0x08004c92     0x4  startup_stm32f10x_hd.o [1]
  .text              ro code  0x08004c96     0x4  startup_stm32f10x_hd.o [1]
  .text              ro code  0x08004c9a     0x4  startup_stm32f10x_hd.o [1]
  .text              ro code  0x08004c9e     0x4  startup_stm32f10x_hd.o [1]
  .text              ro code  0x08004ca2     0x4  startup_stm32f10x_hd.o [1]
  .text              ro code  0x08004ca6     0x4  startup_stm32f10x_hd.o [1]
  .text              ro code  0x08004caa     0x4  startup_stm32f10x_hd.o [1]
  .text              ro code  0x08004cae     0x4  startup_stm32f10x_hd.o [1]
  .text              ro code  0x08004cb2     0x4  startup_stm32f10x_hd.o [1]
  .text              ro code  0x08004cb6     0x4  startup_stm32f10x_hd.o [1]
  .text              ro code  0x08004cba     0x4  startup_stm32f10x_hd.o [1]
  .text              ro code  0x08004cbe     0x4  startup_stm32f10x_hd.o [1]
  .text              ro code  0x08004cc2     0x4  startup_stm32f10x_hd.o [1]
  .text              ro code  0x08004cc6     0x4  startup_stm32f10x_hd.o [1]
  .text              ro code  0x08004cca     0x4  startup_stm32f10x_hd.o [1]
  .text              ro code  0x08004cce     0x4  startup_stm32f10x_hd.o [1]
  .text              ro code  0x08004cd2     0x4  startup_stm32f10x_hd.o [1]
  .text              ro code  0x08004cd6     0x4  startup_stm32f10x_hd.o [1]
  .text              ro code  0x08004cda     0x4  startup_stm32f10x_hd.o [1]
  .text              ro code  0x08004cde     0x4  startup_stm32f10x_hd.o [1]
  .text              ro code  0x08004ce2     0x4  startup_stm32f10x_hd.o [1]
  .text              ro code  0x08004ce6     0x4  startup_stm32f10x_hd.o [1]
  .text              ro code  0x08004cea     0x4  startup_stm32f10x_hd.o [1]
  .text              ro code  0x08004cee     0x4  startup_stm32f10x_hd.o [1]
  .text              ro code  0x08004cf2     0x4  startup_stm32f10x_hd.o [1]
  .text              ro code  0x08004cf6     0x4  startup_stm32f10x_hd.o [1]
  .text              ro code  0x08004cfa     0x4  startup_stm32f10x_hd.o [1]
  .text              ro code  0x08004cfe     0x4  startup_stm32f10x_hd.o [1]
  .text              ro code  0x08004d02     0x4  startup_stm32f10x_hd.o [1]
  .text              ro code  0x08004d06     0x4  startup_stm32f10x_hd.o [1]
  .text              ro code  0x08004d0a     0x4  startup_stm32f10x_hd.o [1]
  .text              ro code  0x08004d0e     0x4  startup_stm32f10x_hd.o [1]
  .text              ro code  0x08004d12     0x4  startup_stm32f10x_hd.o [1]
  .text              ro code  0x08004d16     0x4  startup_stm32f10x_hd.o [1]
  .text              ro code  0x08004d1a     0x4  startup_stm32f10x_hd.o [1]
  .text              ro code  0x08004d1e     0x4  startup_stm32f10x_hd.o [1]
  .text              ro code  0x08004d22     0x4  startup_stm32f10x_hd.o [1]
  .text              ro code  0x08004d26     0x4  startup_stm32f10x_hd.o [1]
  .text              ro code  0x08004d2a     0x4  startup_stm32f10x_hd.o [1]
  .text              ro code  0x08004d2e     0x4  startup_stm32f10x_hd.o [1]
  .text              ro code  0x08004d32     0x4  startup_stm32f10x_hd.o [1]
  .text              ro code  0x08004d36     0x4  startup_stm32f10x_hd.o [1]
  .text              ro code  0x08004d3a     0x4  startup_stm32f10x_hd.o [1]
  .text              ro code  0x08004d3e     0x4  startup_stm32f10x_hd.o [1]
  .text              ro code  0x08004d42     0x4  startup_stm32f10x_hd.o [1]
  .text              ro code  0x08004d46     0x4  startup_stm32f10x_hd.o [1]
  .text              ro code  0x08004d4a     0x4  startup_stm32f10x_hd.o [1]
  .rodata            const    0x08004d4e     0x2  localeconv.o [3]
  .rodata            const    0x08004d50     0x2  xlocale_c.o [3]
  .rodata            const    0x08004d52     0x1  localeconv.o [3]
  .rodata            const    0x08004d53     0x1  setlocale.o [3]
  .rodata            const    0x08004d54     0x1  xlocale_c.o [3]
  Initializer bytes  ro data  0x08004d55    0x92  <for P2 s0>
                            - 0x08004de7  0x4cb7

"P2", part 1 of 3:                         0x7d4
  CSTACK                      0x20000000   0x400  <Block>
    CSTACK           uninit   0x20000000   0x400  <Block tail>
  HEAP                        0x20000400   0x200  <Block>
    HEAP             uninit   0x20000400   0x200  <Block tail>
  .iar.dynexit                0x20000600   0x1d4  <Block>
    .iar.dynexit     uninit   0x20000600     0xc  cppinit.o [3]
    .iar.dynexit     uninit   0x2000060c   0x1c8  <Block tail>
                            - 0x200007d4   0x7d4

"P2", part 2 of 3:                        0x197c
  .bss               zero     0x200007d4   0x678  os_core.o [1]
  .bss               zero     0x20000e4c   0x500  main.o [1]
  .bss               zero     0x2000134c   0x320  app.o [1]
  .bss               zero     0x2000166c   0x200  os_core.o [1]
  .bss               zero     0x2000186c   0x200  os_core.o [1]
  .bss               zero     0x20001a6c   0x140  app.o [1]
  .bss               zero     0x20001bac   0x140  app.o [1]
  .bss               zero     0x20001cec   0x140  app.o [1]
  .bss               zero     0x20001e2c   0x140  os_core.o [1]
  .bss               zero     0x20001f6c    0x8c  os_core.o [1]
  .bss               zero     0x20001ff8    0x80  os_core.o [1]
  .bss               zero     0x20002078    0x50  xfiles.o [3]
  .bss               zero     0x200020c8    0x14  xsyslock.o [3]
  .bss               zero     0x200020dc     0xc  fingerprint.o [1]
  .bss               zero     0x200020e8     0xc  fingerprint.o [1]
  .bss               zero     0x200020f4     0x8  xxmemxmalloc.o [3]
  .bss               zero     0x200020fc     0x4  os_core.o [1]
  .bss               zero     0x20002100     0x4  os_core.o [1]
  .bss               zero     0x20002104     0x4  os_core.o [1]
  .bss               zero     0x20002108     0x4  os_core.o [1]
  .bss               zero     0x2000210c     0x4  os_core.o [1]
  .bss               zero     0x20002110     0x4  os_core.o [1]
  .bss               zero     0x20002114     0x4  os_core.o [1]
  .bss               zero     0x20002118     0x4  os_core.o [1]
  .bss               zero     0x2000211c     0x4  os_core.o [1]
  .bss               zero     0x20002120     0x4  os_core.o [1]
  .bss               zero     0x20002124     0x4  os_core.o [1]
  .bss               zero     0x20002128     0x4  os_core.o [1]
  .bss               zero     0x2000212c     0x4  xgetmemchunk.o [3]
  .bss               zero     0x20002130     0x4  MtxWrapper.o [3]
  .bss               zero     0x20002134     0x4  MtxWrapper.o [3]
  .bss               zero     0x20002138     0x4  MtxWrapper.o [3]
  .bss               zero     0x2000213c     0x4  MtxWrapper.o [3]
  .bss               zero     0x20002140     0x4  iarwstd.o [5]
  .bss               zero     0x20002144     0x1  fingerprint.o [1]
  .bss               zero     0x20002145     0x1  os_core.o [1]
  .bss               zero     0x20002146     0x1  os_core.o [1]
  .bss               zero     0x20002147     0x1  os_core.o [1]
  .bss               zero     0x20002148     0x1  os_core.o [1]
  .bss               zero     0x20002149     0x1  os_core.o [1]
  .bss               zero     0x2000214a     0x1  os_core.o [1]
  .bss               zero     0x2000214b     0x1  os_core.o [1]
  .bss               zero     0x2000214c     0x1  os_core.o [1]
  .bss               zero     0x2000214d     0x1  os_core.o [1]
  .bss               zero     0x2000214e     0x1  os_core.o [1]
                            - 0x2000214f  0x197b

"P2", part 3 of 3:                         0x128
  P2 s0                       0x20002150   0x128  <Init block>
    .data            inited   0x20002150    0x84  setlocale.o [3]
    .data            inited   0x200021d4    0x4c  localeconv.o [3]
    .data            inited   0x20002220    0x40  xfiles.o [3]
    .data            inited   0x20002260    0x10  stm32f10x_rcc.o [1]
    .data            inited   0x20002270     0x4  stm32f10x_rcc.o [1]
    .data            inited   0x20002274     0x4  cppinit.o [3]
                            - 0x20002278   0x128


*******************************************************************************
*** INIT TABLE
***

          Address     Size
          -------     ----
Zero (__iar_zero_init2)
    1 destination range, total size 0x197b:
          0x200007d4  0x197b

Copy/packbits (__iar_packbits_init2)
    1 source range, total size 0x92 (49% of destination):
          0x08004d55    0x92
    1 destination range, total size 0x128:
          0x20002150   0x128


*******************************************************************************
*** MODULE SUMMARY
***

    Module                  ro code  ro data  rw data
    ------                  -------  -------  -------
D:\Documents\Academics\ELEC3300\Lab\SmartHouse-System\Project\EWARMv5\STM3210E debug\Obj: [1]
    app.o                     1 082      296    1 760
    bsp.o                     1 076
    fingerprint.o               988                25
    lcd.o                       620
    main.o                       44             1 280
    misc.o                      136
    os_core.o                 1 828      288    3 326
    os_cpu_a.o                  160
    os_cpu_c.o                  172
    os_flag.o                    84
    os_task.o                   912
    os_time.o                   308
    startup_stm32f10x_hd.o      608
    stm32f10x_adc.o             362
    stm32f10x_fsmc.o            276
    stm32f10x_gpio.o            440
    stm32f10x_it.o              124
    stm32f10x_rcc.o             820       10       20
    stm32f10x_usart.o           402
    system_stm32f10x.o          336        4
    -------------------------------------------------
    Total:                   10 778      598    6 411

command line: [2]
    -------------------------------------------------
    Total:

dl7M_tl_if.a: [3]
    MtxWrapper.o                 48                16
    cppinit.o                   108        2       16
    div.o                        14
    exit.o                        6
    localeconv.o                 20       56       76
    printf.o                     32
    putchar.o                    12
    setlocale.o                  20       66      132
    xdnorm.o                    180
    xdscale.o                   268
    xencoding_sb.o               84       16
    xfiles.o                              32      144
    xgetmemchunk.o               40                 4
    xlocale_c.o                           91
    xmbcurmax.o                  10
    xmbtowc.o                    32
    xprintffull.o             4 110       24
    xprout.o                     22
    xsyslock.o                  140                20
    xwctomb.o                    26
    xxmemxfree.o                136
    xxmemxmalloc.o              188                 8
    -------------------------------------------------
    Total:                    5 496      287      416

rt7M_tl.a: [4]
    ABImemcpy.o                 112
    DblAdd.o                    230
    DblCmpGe.o                   46
    DblCmpLe.o                   46
    DblDiv.o                    582
    DblMul.o                    418
    DblSub.o                    382
    DblToI32.o                   86
    I32ToDbl.o                   46
    I64DivMod.o                 302
    I64DivZer.o                   2
    cexit.o                      14
    cmain.o                      24
    data_init2.o                 32
    memchr.o                     88
    packbits_init2.o            148
    strchr.o                     22
    strlen.o                     54
    zero_init2.o                 26
    -------------------------------------------------
    Total:                    2 660

shb_l.a: [5]
    exit.o                       20
    iarwstd.o                    28                 4
    -------------------------------------------------
    Total:                       48                 4

    Gaps                         28        4
    Linker created                        44    1 992
-----------------------------------------------------
    Grand Total:             19 010      933    8 823


*******************************************************************************
*** ENTRY LIST
***

Entry                      Address   Size  Type      Object
-----                      -------   ----  ----      ------
.iar.dynexit$$Base      0x20000600          --   Gb  - Linker created -
.iar.dynexit$$Limit     0x200007d4          --   Gb  - Linker created -
ADC1_2_IRQHandler       0x08004ca7         Code  Wk  startup_stm32f10x_hd.o [1]
ADC3_IRQHandler         0x08004d1b         Code  Wk  startup_stm32f10x_hd.o [1]
ADCPrescTable           0x20002270    0x4  Data  Lc  stm32f10x_rcc.o [1]
ADC_Cmd                 0x080036e9   0x1a  Code  Gb  stm32f10x_adc.o [1]
ADC_Configuration       0x08001f1d   0x68  Code  Gb  bsp.o [1]
ADC_GetCalibrationStatus
                        0x0800372b   0x14  Code  Gb  stm32f10x_adc.o [1]
ADC_GetResetCalibrationStatus
                        0x0800370d   0x14  Code  Gb  stm32f10x_adc.o [1]
ADC_Init                0x08003699   0x50  Code  Gb  stm32f10x_adc.o [1]
ADC_RegularChannelConfig
                        0x0800373f   0xc4  Code  Gb  stm32f10x_adc.o [1]
ADC_ResetCalibration    0x08003703    0xa  Code  Gb  stm32f10x_adc.o [1]
ADC_StartCalibration    0x08003721    0xa  Code  Gb  stm32f10x_adc.o [1]
APBAHBPrescTable        0x20002260   0x10  Data  Lc  stm32f10x_rcc.o [1]
AddUser                 0x080022f3   0xd6  Code  Gb  fingerprint.o [1]
App_TCBInitHook         0x08001c9d    0x2  Code  Gb  app.o [1]
App_TaskCreateHook      0x08001c95    0x2  Code  Gb  app.o [1]
App_TaskIdleHook        0x08001c97    0x2  Code  Gb  app.o [1]
App_TaskStatHook        0x08001c99    0x2  Code  Gb  app.o [1]
App_TaskSwHook          0x08001c9b    0x2  Code  Gb  app.o [1]
BSP_Init                0x08001d09   0x30  Code  Gb  bsp.o [1]
BusFault_Handler        0x080044b3    0x2  Code  Gb  stm32f10x_it.o [1]
CAN1_RX1_IRQHandler     0x08004cb3         Code  Wk  startup_stm32f10x_hd.o [1]
CAN1_SCE_IRQHandler     0x08004cb7         Code  Wk  startup_stm32f10x_hd.o [1]
CSTACK$$Base            0x20000000          --   Gb  - Linker created -
CSTACK$$Limit           0x20000400          --   Gb  - Linker created -
ClearAllUser            0x080023c9   0x64  Code  Gb  fingerprint.o [1]
DMA1_Channel1_IRQHandler
                        0x08004c8b         Code  Wk  startup_stm32f10x_hd.o [1]
DMA1_Channel2_IRQHandler
                        0x08004c8f         Code  Wk  startup_stm32f10x_hd.o [1]
DMA1_Channel3_IRQHandler
                        0x08004c93         Code  Wk  startup_stm32f10x_hd.o [1]
DMA1_Channel4_IRQHandler
                        0x08004c97         Code  Wk  startup_stm32f10x_hd.o [1]
DMA1_Channel5_IRQHandler
                        0x08004c9b         Code  Wk  startup_stm32f10x_hd.o [1]
DMA1_Channel6_IRQHandler
                        0x08004c9f         Code  Wk  startup_stm32f10x_hd.o [1]
DMA1_Channel7_IRQHandler
                        0x08004ca3         Code  Wk  startup_stm32f10x_hd.o [1]
DMA2_Channel1_IRQHandler
                        0x08004d3f         Code  Wk  startup_stm32f10x_hd.o [1]
DMA2_Channel2_IRQHandler
                        0x08004d43         Code  Wk  startup_stm32f10x_hd.o [1]
DMA2_Channel3_IRQHandler
                        0x08004d47         Code  Wk  startup_stm32f10x_hd.o [1]
DMA2_Channel4_5_IRQHandler
                        0x08004d4b         Code  Wk  startup_stm32f10x_hd.o [1]
DebugMon_Handler        0x080044b7    0x2  Code  Gb  stm32f10x_it.o [1]
DtorRecArray            0x20000600    0xc  Data  Lc  cppinit.o [3]
EXTI0_IRQHandler        0x08004c77         Code  Wk  startup_stm32f10x_hd.o [1]
EXTI15_10_IRQHandler    0x08004cff         Code  Wk  startup_stm32f10x_hd.o [1]
EXTI1_IRQHandler        0x08004c7b         Code  Wk  startup_stm32f10x_hd.o [1]
EXTI2_IRQHandler        0x08004c7f         Code  Wk  startup_stm32f10x_hd.o [1]
EXTI3_IRQHandler        0x08004c83         Code  Wk  startup_stm32f10x_hd.o [1]
EXTI4_IRQHandler        0x08004c87         Code  Wk  startup_stm32f10x_hd.o [1]
EXTI9_5_IRQHandler      0x08004cbb         Code  Wk  startup_stm32f10x_hd.o [1]
FLASH_IRQHandler        0x08004c6f         Code  Wk  startup_stm32f10x_hd.o [1]
FSMC_IRQHandler         0x08004d1f         Code  Wk  startup_stm32f10x_hd.o [1]
FSMC_NORSRAMCmd         0x08003c95   0x38  Code  Gb  stm32f10x_fsmc.o [1]
FSMC_NORSRAMInit        0x08003bb9   0xd8  Code  Gb  stm32f10x_fsmc.o [1]
GPIO_Configuration      0x08001dc5   0xd8  Code  Gb  bsp.o [1]
GPIO_DeInit             0x08003029   0xcc  Code  Gb  stm32f10x_gpio.o [1]
GPIO_Init               0x080030f5   0xcc  Code  Gb  stm32f10x_gpio.o [1]
GPIO_ReadInputDataBit   0x080031c1   0x14  Code  Gb  stm32f10x_gpio.o [1]
GPIO_ResetBits          0x080031db    0x6  Code  Gb  stm32f10x_gpio.o [1]
GPIO_SetBits            0x080031d5    0x6  Code  Gb  stm32f10x_gpio.o [1]
GetTimeOut              0x080022b1   0x42  Code  Gb  fingerprint.o [1]
GetUserCount            0x080021ed   0x42  Code  Gb  fingerprint.o [1]
GetcompareLevel         0x0800222f   0x42  Code  Gb  fingerprint.o [1]
HEAP$$Base              0x20000400          --   Gb  - Linker created -
HEAP$$Limit             0x20000600          --   Gb  - Linker created -
HardFault_Handler       0x080044af    0x2  Code  Gb  stm32f10x_it.o [1]
I2C1_ER_IRQHandler      0x08004cdf         Code  Wk  startup_stm32f10x_hd.o [1]
I2C1_EV_IRQHandler      0x08004cdb         Code  Wk  startup_stm32f10x_hd.o [1]
I2C2_ER_IRQHandler      0x08004ce7         Code  Wk  startup_stm32f10x_hd.o [1]
I2C2_EV_IRQHandler      0x08004ce3         Code  Wk  startup_stm32f10x_hd.o [1]
IsMasterUser            0x08002431   0x1a  Code  Gb  fingerprint.o [1]
LCD_Clear               0x08002c9d   0x5a  Code  Gb  lcd.o [1]
LCD_CtrlLinesConfig     0x08002cfd   0x78  Code  Gb  lcd.o [1]
LCD_FSMCConfig          0x08002d75   0x6c  Code  Gb  lcd.o [1]
MemManage_Handler       0x080044b1    0x2  Code  Gb  stm32f10x_it.o [1]
NMI_Handler             0x080044ad    0x2  Code  Gb  stm32f10x_it.o [1]
NVIC_Configuration      0x08002069   0x48  Code  Gb  bsp.o [1]
NVIC_Init               0x080043ad   0x74  Code  Gb  misc.o [1]
NVIC_PriorityGroupConfig
                        0x0800439d   0x10  Code  Gb  misc.o [1]
NVIC_SetPriority        0x08001ca1   0x2c  Code  Lc  bsp.o [1]
OSCPUUsage              0x20002145    0x1  Data  Gb  os_core.o [1]
OSCtxSw                 0x08004207         Code  Gb  os_cpu_a.o [1]
OSCtxSwCtr              0x200020fc    0x4  Data  Gb  os_core.o [1]
OSEventFreeList         0x20002100    0x4  Data  Gb  os_core.o [1]
OSEventTbl              0x20001e2c  0x140  Data  Gb  os_core.o [1]
OSFlagFreeList          0x20002104    0x4  Data  Gb  os_core.o [1]
OSFlagTbl               0x20001f6c   0x8c  Data  Gb  os_core.o [1]
OSIdleCtr               0x20002114    0x4  Data  Gb  os_core.o [1]
OSIdleCtrMax            0x20002108    0x4  Data  Gb  os_core.o [1]
OSIdleCtrRun            0x2000210c    0x4  Data  Gb  os_core.o [1]
OSInit                  0x08001141   0x28  Code  Gb  os_core.o [1]
OSInitHookBegin         0x08004131    0x2  Code  Gb  os_cpu_c.o [1]
OSInitHookEnd           0x08004133    0x2  Code  Gb  os_cpu_c.o [1]
OSIntCtxSw              0x0800420f         Code  Gb  os_cpu_a.o [1]
OSIntEnter              0x08001169   0x24  Code  Gb  os_core.o [1]
OSIntExit               0x0800118d   0x94  Code  Gb  os_core.o [1]
OSIntNesting            0x20002147    0x1  Data  Gb  os_core.o [1]
OSLockNesting           0x20002148    0x1  Data  Gb  os_core.o [1]
OSPrioCur               0x20002149    0x1  Data  Gb  os_core.o [1]
OSPrioHighRdy           0x2000214a    0x1  Data  Gb  os_core.o [1]
OSRdyGrp                0x2000214b    0x1  Data  Gb  os_core.o [1]
OSRdyTbl                0x20002110    0x4  Data  Gb  os_core.o [1]
OSRunning               0x2000214c    0x1  Data  Gb  os_core.o [1]
OSStart                 0x08001221   0x42  Code  Gb  os_core.o [1]
OSStartHighRdy          0x080041eb         Code  Gb  os_cpu_a.o [1]
OSStatRdy               0x20002146    0x1  Data  Gb  os_core.o [1]
OSTCBCur                0x20002118    0x4  Data  Gb  os_core.o [1]
OSTCBFreeList           0x2000211c    0x4  Data  Gb  os_core.o [1]
OSTCBHighRdy            0x20002120    0x4  Data  Gb  os_core.o [1]
OSTCBInitHook           0x080041d1    0x8  Code  Gb  os_cpu_c.o [1]
OSTCBList               0x20002124    0x4  Data  Gb  os_core.o [1]
OSTCBPrioTbl            0x20001ff8   0x80  Data  Gb  os_core.o [1]
OSTCBTbl                0x200007d4  0x678  Data  Gb  os_core.o [1]
OSTaskCreate            0x080024b1   0xaa  Code  Gb  os_task.o [1]
OSTaskCreateExt         0x0800255b   0xce  Code  Gb  os_task.o [1]
OSTaskCreateHook        0x08004135    0x8  Code  Gb  os_cpu_c.o [1]
OSTaskCtr               0x2000214d    0x1  Data  Gb  os_core.o [1]
OSTaskIdleHook          0x0800413d    0x8  Code  Gb  os_cpu_c.o [1]
OSTaskIdleStk           0x2000186c  0x200  Data  Gb  os_core.o [1]
OSTaskNameSet           0x08002629   0xa2  Code  Gb  os_task.o [1]
OSTaskStatHook          0x08004145    0x8  Code  Gb  os_cpu_c.o [1]
OSTaskStatStk           0x2000166c  0x200  Data  Gb  os_core.o [1]
OSTaskStkChk            0x080026d5   0x8e  Code  Gb  os_task.o [1]
OSTaskStkInit           0x0800414d   0x7c  Code  Gb  os_cpu_c.o [1]
OSTaskSuspend           0x08002763   0xb6  Code  Gb  os_task.o [1]
OSTaskSwHook            0x080041c9    0x8  Code  Gb  os_cpu_c.o [1]
OSTickStepState         0x2000214e    0x1  Data  Gb  os_core.o [1]
OSTime                  0x20002128    0x4  Data  Gb  os_core.o [1]
OSTimeDly               0x08003955   0x68  Code  Gb  os_time.o [1]
OSTimeDlyHMSM           0x080039bd   0xa2  Code  Gb  os_time.o [1]
OSTimeSet               0x08003a6d   0x18  Code  Gb  os_time.o [1]
OSTimeTick              0x08001265   0xec  Code  Gb  os_core.o [1]
OSTimeTickHook          0x080041d9    0x2  Code  Gb  os_cpu_c.o [1]
OSUnMapTbl              0x08003dd8  0x100  Data  Gb  os_core.o [1]
OS_CPU_PendSVHandler    0x08004217         Code  Gb  os_cpu_a.o [1]
OS_CPU_SR_Restore       0x080041e5         Code  Gb  os_cpu_a.o [1]
OS_CPU_SR_Save          0x080041dd         Code  Gb  os_cpu_a.o [1]
OS_FlagInit             0x080046b5   0x50  Code  Gb  os_flag.o [1]
OS_InitEventList        0x08001351   0x54  Code  Lc  os_core.o [1]
OS_InitMisc             0x080013a5   0x3e  Code  Lc  os_core.o [1]
OS_InitRdyList          0x080013f9   0x34  Code  Lc  os_core.o [1]
OS_InitTCBList          0x080014b9   0x60  Code  Lc  os_core.o [1]
OS_InitTaskIdle         0x08001431   0x44  Code  Lc  os_core.o [1]
OS_InitTaskStat         0x08001475   0x44  Code  Lc  os_core.o [1]
OS_MemClr               0x08001521   0x12  Code  Gb  os_core.o [1]
OS_Sched                0x08001533   0x5c  Code  Gb  os_core.o [1]
OS_SchedNew             0x080015a9   0x20  Code  Lc  os_core.o [1]
OS_StrCopy              0x080015d9   0x1e  Code  Gb  os_core.o [1]
OS_StrLen               0x080015f7   0x14  Code  Gb  os_core.o [1]
OS_TCBInit              0x080016f1  0x174  Code  Gb  os_core.o [1]
OS_TaskIdle             0x0800160b   0x1c  Code  Gb  os_core.o [1]
OS_TaskStat             0x08001629   0x7c  Code  Gb  os_core.o [1]
OS_TaskStatStkChk       0x080016ad   0x44  Code  Gb  os_core.o [1]
OS_TaskStkClr           0x08002829   0x18  Code  Gb  os_task.o [1]
PVD_IRQHandler          0x08004c63         Code  Wk  startup_stm32f10x_hd.o [1]
RCC_ADCCLKConfig        0x080029a9   0x14  Code  Gb  stm32f10x_rcc.o [1]
RCC_AHBPeriphClockCmd   0x08002a91   0x24  Code  Gb  stm32f10x_rcc.o [1]
RCC_APB1PeriphClockCmd  0x08002ad9   0x24  Code  Gb  stm32f10x_rcc.o [1]
RCC_APB2PeriphClockCmd  0x08002ab5   0x24  Code  Gb  stm32f10x_rcc.o [1]
RCC_APB2PeriphResetCmd  0x08002afd   0x24  Code  Gb  stm32f10x_rcc.o [1]
RCC_Configuration       0x08001ea9   0x72  Code  Gb  bsp.o [1]
RCC_DeInit              0x08002841   0x5c  Code  Gb  stm32f10x_rcc.o [1]
RCC_GetClocksFreq       0x080029bd   0xd0  Code  Gb  stm32f10x_rcc.o [1]
RCC_GetFlagStatus       0x08002b21   0x44  Code  Gb  stm32f10x_rcc.o [1]
RCC_GetSYSCLKSource     0x08002961    0xa  Code  Gb  stm32f10x_rcc.o [1]
RCC_HCLKConfig          0x0800296b   0x14  Code  Gb  stm32f10x_rcc.o [1]
RCC_HSEConfig           0x0800289d   0x52  Code  Gb  stm32f10x_rcc.o [1]
RCC_IRQHandler          0x08004c73         Code  Wk  startup_stm32f10x_hd.o [1]
RCC_Init                0x08001d51   0x74  Code  Gb  bsp.o [1]
RCC_PCLK1Config         0x0800297f   0x14  Code  Gb  stm32f10x_rcc.o [1]
RCC_PCLK2Config         0x08002993   0x16  Code  Gb  stm32f10x_rcc.o [1]
RCC_PLLCmd              0x08002941    0xc  Code  Gb  stm32f10x_rcc.o [1]
RCC_PLLConfig           0x08002929   0x16  Code  Gb  stm32f10x_rcc.o [1]
RCC_SYSCLKConfig        0x0800294d   0x14  Code  Gb  stm32f10x_rcc.o [1]
RCC_WaitForHSEStartUp   0x080028ef   0x3a  Code  Gb  stm32f10x_rcc.o [1]
RTCAlarm_IRQHandler     0x08004d03         Code  Wk  startup_stm32f10x_hd.o [1]
RTC_IRQHandler          0x08004c6b         Code  Wk  startup_stm32f10x_hd.o [1]
Region$$Table$$Base     0x08004914          --   Gb  - Linker created -
Region$$Table$$Limit    0x08004940          --   Gb  - Linker created -
SDIO_IRQHandler         0x08004d23         Code  Wk  startup_stm32f10x_hd.o [1]
SPI1_IRQHandler         0x08004ceb         Code  Wk  startup_stm32f10x_hd.o [1]
SPI2_IRQHandler         0x08004cef         Code  Wk  startup_stm32f10x_hd.o [1]
SPI3_IRQHandler         0x08004d2b         Code  Wk  startup_stm32f10x_hd.o [1]
STM3210E_LCD_Init       0x08002bc9   0xd4  Code  Gb  lcd.o [1]
SVC_Handler             0x080044b9    0x2  Code  Gb  stm32f10x_it.o [1]
SetSysClock             0x0800385d    0x8  Code  Lc  system_stm32f10x.o [1]
SetSysClockTo72         0x08003865   0xe8  Code  Lc  system_stm32f10x.o [1]
SetcompareLevel         0x08002271   0x40  Code  Gb  fingerprint.o [1]
SysTick_Config          0x08001ccd   0x3c  Code  Lc  bsp.o [1]
SysTick_Handler         0x080044bb   0x10  Code  Gb  stm32f10x_it.o [1]
SysTick_init            0x08001d39   0x18  Code  Gb  bsp.o [1]
SystemFrequency         0x08004c34    0x4  Data  Gb  system_stm32f10x.o [1]
SystemInit              0x08003805   0x58  Code  Gb  system_stm32f10x.o [1]
SystemInit_ExtMemCtl    0x080049f9         Code  Wk  startup_stm32f10x_hd.o [1]
TAMPER_IRQHandler       0x08004c67         Code  Wk  startup_stm32f10x_hd.o [1]
TIM1_BRK_IRQHandler     0x08004cbf         Code  Wk  startup_stm32f10x_hd.o [1]
TIM1_CC_IRQHandler      0x08004ccb         Code  Wk  startup_stm32f10x_hd.o [1]
TIM1_TRG_COM_IRQHandler
                        0x08004cc7         Code  Wk  startup_stm32f10x_hd.o [1]
TIM1_UP_IRQHandler      0x08004cc3         Code  Wk  startup_stm32f10x_hd.o [1]
TIM2_IRQHandler         0x08004ccf         Code  Wk  startup_stm32f10x_hd.o [1]
TIM3_IRQHandler         0x08004cd3         Code  Wk  startup_stm32f10x_hd.o [1]
TIM4_IRQHandler         0x08004cd7         Code  Wk  startup_stm32f10x_hd.o [1]
TIM5_IRQHandler         0x08004d27         Code  Wk  startup_stm32f10x_hd.o [1]
TIM6_IRQHandler         0x08004d37         Code  Wk  startup_stm32f10x_hd.o [1]
TIM7_IRQHandler         0x08004d3b         Code  Wk  startup_stm32f10x_hd.o [1]
TIM8_BRK_IRQHandler     0x08004d0b         Code  Wk  startup_stm32f10x_hd.o [1]
TIM8_CC_IRQHandler      0x08004d17         Code  Wk  startup_stm32f10x_hd.o [1]
TIM8_TRG_COM_IRQHandler
                        0x08004d13         Code  Wk  startup_stm32f10x_hd.o [1]
TIM8_UP_IRQHandler      0x08004d0f         Code  Wk  startup_stm32f10x_hd.o [1]
Task_Comm               0x080018d5   0x48  Code  Lc  app.o [1]
Task_FP                 0x0800198d  0x2d0  Code  Lc  app.o [1]
Task_LED                0x08001c5d   0x34  Code  Lc  app.o [1]
Task_Manager            0x080018c5   0x10  Code  Lc  app.o [1]
Task_Start              0x08001865   0x60  Code  Gb  app.o [1]
TxAndRsCmd              0x08002105   0xe8  Code  Gb  fingerprint.o [1]
TxByte                  0x080020e5   0x20  Code  Gb  fingerprint.o [1]
UART4_IRQHandler        0x08004d2f         Code  Wk  startup_stm32f10x_hd.o [1]
UART5_IRQHandler        0x08004d33         Code  Wk  startup_stm32f10x_hd.o [1]
USART1_IRQHandler       0x080044cd   0x14  Code  Gb  stm32f10x_it.o [1]
USART2_IRQHandler       0x080044e1   0x48  Code  Gb  stm32f10x_it.o [1]
USART3_IRQHandler       0x08004cfb         Code  Wk  startup_stm32f10x_hd.o [1]
USART_Cmd               0x08003419   0x1c  Code  Gb  stm32f10x_usart.o [1]
USART_Config            0x08001f85   0xe0  Code  Gb  bsp.o [1]
USART_GetFlagStatus     0x08003497   0x1c  Code  Gb  stm32f10x_usart.o [1]
USART_GetITStatus       0x080034b3   0x64  Code  Gb  stm32f10x_usart.o [1]
USART_ITConfig          0x08003435   0x52  Code  Gb  stm32f10x_usart.o [1]
USART_Init              0x08003385   0x90  Code  Gb  stm32f10x_usart.o [1]
USART_ReceiveData       0x0800348f    0x8  Code  Gb  stm32f10x_usart.o [1]
USART_SendData          0x08003487    0x8  Code  Gb  stm32f10x_usart.o [1]
USBWakeUp_IRQHandler    0x08004d07         Code  Wk  startup_stm32f10x_hd.o [1]
USB_HP_CAN1_TX_IRQHandler
                        0x08004cab         Code  Wk  startup_stm32f10x_hd.o [1]
USB_LP_CAN1_RX0_IRQHandler
                        0x08004caf         Code  Wk  startup_stm32f10x_hd.o [1]
UsageFault_Handler      0x080044b5    0x2  Code  Gb  stm32f10x_it.o [1]
VerifyUser              0x0800244b   0x5c  Code  Gb  fingerprint.o [1]
WWDG_IRQHandler         0x08004c5f         Code  Wk  startup_stm32f10x_hd.o [1]
_EncodingSb_Mbtowc      0x08004729   0x34  Code  Gb  xencoding_sb.o [3]
_EncodingSb_Wctomb      0x08004709   0x20  Code  Gb  xencoding_sb.o [3]
_GenldDefault           0x08000ebd  0x250  Code  Lc  xprintffull.o [3]
_IsdstStr               0x20002174    0x4  Data  Gb  setlocale.o [3]
_LdtobDefault           0x08000aa5  0x418  Code  Lc  xprintffull.o [3]
_LitobDefault           0x08000999  0x10c  Code  Lc  xprintffull.o [3]
_LocaleC_lconv          0x0800475c   0x48  Data  Gb  xlocale_c.o [3]
_LocaleEncoding         0x08004b29   0x10  Code  Gb  setlocale.o [3]
_LocaleReturnString     0x20002184   0x50  Data  Lc  setlocale.o [3]
_Locale_LconvArray      0x20002180    0x4  Data  Gb  setlocale.o [3]
_Locale_Profile         0x20002150   0x1c  Data  Gb  setlocale.o [3]
_Locale_lconv           0x200021d8   0x48  Data  Gb  localeconv.o [3]
_Mbtowc                 0x080049a1   0x20  Code  Gb  xmbtowc.o [3]
_Printf                 0x08000131  0x59c  Code  Gb  xprintffull.o [3]
_Prout                  0x08004ac3   0x16  Code  Gb  xprout.o [3]
_PutcharsDefault        0x0800110d   0x32  Code  Lc  xprintffull.o [3]
_PutstrDefault          0x080006cd  0x2cc  Code  Lc  xprintffull.o [3]
_TzoneStr               0x2000216c    0x4  Data  Gb  setlocale.o [3]
_Wctomb                 0x08004a31   0x1a  Code  Gb  xwctomb.o [3]
__aeabi_cdcmple         0x0800480d         Code  Gb  DblCmpLe.o [4]
__aeabi_cdrcmple        0x0800483d         Code  Gb  DblCmpGe.o [4]
__aeabi_d2iz            0x0800465d         Code  Gb  DblToI32.o [4]
__aeabi_d2uiz           0x08004689         Code  Gb  DblToI32.o [4]
__aeabi_dadd            0x08003ed9         Code  Gb  DblAdd.o [4]
__aeabi_ddiv            0x08002de1         Code  Gb  DblDiv.o [4]
__aeabi_dmul            0x080031e1         Code  Gb  DblMul.o [4]
__aeabi_dsub            0x08003519         Code  Gb  DblSub.o [4]
__aeabi_i2d             0x0800486d         Code  Gb  I32ToDbl.o [4]
__aeabi_ldiv0           0x08004c39         Code  Gb  I64DivZer.o [4]
__aeabi_ldivmod         0x08003a89         Code  Gb  I64DivMod.o [4]
__aeabi_memcpy          0x08004529         Code  Gb  ABImemcpy.o [4]
__aeabi_memcpy4         0x08004543         Code  Gb  ABImemcpy.o [4]
__aeabi_memcpy8         0x08004543         Code  Gb  ABImemcpy.o [4]
__aeabi_ui2d            0x08004881         Code  Gb  I32ToDbl.o [4]
__aeabi_uldivmod        0x08003a9d         Code  Gb  I64DivMod.o [4]
__call_dtors            0x080045c1    0x4  Code  Gb  cppinit.o [3]
__cstart_call_dtors     0x08004b9f         Code  Gb  cexit.o [4]
__cxa_atexit            0x08004599   0x28  Code  Gb  cppinit.o [3]
__cxa_finalize          0x080045c5   0x3c  Code  Gb  cppinit.o [3]
__data_Aldata           0x200020f4    0x8  Data  Gb  xxmemxmalloc.o [3]
__data_GetMemChunk      0x080048c9   0x28  Code  Gb  xgetmemchunk.o [3]
__exit                  0x08004b15   0x14  Code  Gb  exit.o [5]
__iar_Dnorm             0x0800407d   0xb4  Code  Gb  xdnorm.o [3]
__iar_Dscale            0x08003ccd  0x10c  Code  Gb  xdscale.o [3]
__iar_Locksyslock       0x08004339   0x4c  Code  Gb  xsyslock.o [3]
__iar_Mbcurmax          0x08004be9    0xa  Code  Gb  xmbcurmax.o [3]
__iar_Memchr            0x08004605         Code  Gb  memchr.o [4]
__iar_Mtxdst            0x080047e3    0x4  Code  Gb  MtxWrapper.o [3]
__iar_Mtxinit           0x080047dd    0x6  Code  Gb  MtxWrapper.o [3]
__iar_Mtxlock           0x080047f1    0x6  Code  Gb  MtxWrapper.o [3]
__iar_Mtxunlock         0x080047f7    0x6  Code  Gb  MtxWrapper.o [3]
__iar_Stdout            0x20002220   0x40  Data  Gb  xfiles.o [3]
__iar_Strchr            0x08004aad         Code  Gb  strchr.o [4]
__iar_Tls_setup__IsdstStr
                        0x20002178    0x4  Data  Gb  setlocale.o [3]
__iar_Tls_setup__Locale_Profile
                        0x2000217c    0x4  Data  Gb  setlocale.o [3]
__iar_Tls_setup__Locale_lconv
                        0x200021d4    0x4  Data  Gb  localeconv.o [3]
__iar_Tls_setup__TzoneStr
                        0x20002170    0x4  Data  Gb  setlocale.o [3]
__iar_Unlocksyslock     0x08004385   0x14  Code  Gb  xsyslock.o [3]
__iar_d2uiz             0x08004693         Code  Gb  DblToI32.o [4]
__iar_dadd              0x08003eeb         Code  Gb  DblAdd.o [4]
__iar_data_init2        0x08004981   0x20  Code  Gb  data_init2.o [4]
__iar_dsub              0x0800352b         Code  Gb  DblSub.o [4]
__iar_dsubStart         0x0800353d         Code  Gb  DblSub.o [4]
__iar_packbits_init2    0x0800427d   0x94  Code  Gb  packbits_init2.o [4]
__iar_program_start     0x08004a95         Code  Gb  cmain.o [4]
__iar_sh_stdout_close   0x08004a15   0x16  Code  Gb  iarwstd.o [5]
__iar_sh_stdout_handle  0x20002140    0x4  Data  Lc  iarwstd.o [5]
__iar_ui2d              0x08004883         Code  Gb  I32ToDbl.o [4]
__iar_zero_init2        0x08004a4b   0x1a  Code  Gb  zero_init2.o [4]
__low_level_init        0x080049fb         Code  Gb  startup_stm32f10x_hd.o [1]
__vector_table          0x08000000         Data  Gb  startup_stm32f10x_hd.o [1]
_exit                   0x08004b9d         Code  Gb  cexit.o [4]
_main                   0x08004aa7         Code  Gb  cmain.o [4]
clearlocks              0x08004311   0x26  Code  Lc  xsyslock.o [3]
delay                   0x080020d5   0x10  Code  Lc  fingerprint.o [1]
delay                   0x08002b75   0x20  Code  Gb  lcd.o [1]
div                     0x08004bab    0xe  Code  Gb  div.o [3]
exit                    0x08004c2d    0x6  Code  Gb  exit.o [3]
fputc                   0x080020b1   0x20  Code  Gb  bsp.o [1]
free                    0x08004425   0x88  Code  Gb  xxmemxfree.o [3]
gRsBuf                  0x200020dc    0xc  Data  Gb  fingerprint.o [1]
gRsLength               0x20002144    0x1  Data  Gb  fingerprint.o [1]
gTxBuf                  0x200020e8    0xc  Data  Gb  fingerprint.o [1]
key_scan                0x0800191d   0x70  Code  Gb  app.o [1]
localeconv              0x08004b01   0x14  Code  Gb  localeconv.o [3]
main                    0x0800489d   0x2c  Code  Gb  main.o [1]
malloc                  0x08003fc1   0xbc  Code  Gb  xxmemxmalloc.o [3]
memchr                  0x08004605         Code  Gb  memchr.o [4]
mtx                     0x200020cc   0x10  Data  Lc  xsyslock.o [3]
mtxdst                  0x20002134    0x4  Data  Lc  MtxWrapper.o [3]
mtxinit                 0x20002130    0x4  Data  Lc  MtxWrapper.o [3]
mtxlock                 0x20002138    0x4  Data  Lc  MtxWrapper.o [3]
mtxunlock               0x2000213c    0x4  Data  Lc  MtxWrapper.o [3]
next_abi_dtor_rec       0x20002274    0x4  Data  Lc  cppinit.o [3]
obuf                    0x20002078   0x50  Data  Lc  xfiles.o [3]
power_delay             0x08002bad   0x1c  Code  Gb  lcd.o [1]
printf                  0x08004961   0x20  Code  Gb  printf.o [3]
putchar                 0x08004bdd    0xc  Code  Gb  putchar.o [3]
reset_delay             0x08002b95   0x18  Code  Gb  lcd.o [1]
startup_task_stk        0x20000e4c  0x500  Data  Lc  main.o [1]
strchr                  0x08004aad         Code  Gb  strchr.o [4]
strlen                  0x080047a5         Code  Gb  strlen.o [4]
syslock_o               0x200020c8    0x4  Data  Lc  xsyslock.o [3]
task_comm_stk           0x20001bac  0x140  Data  Lc  app.o [1]
task_fp_stk             0x2000134c  0x320  Data  Lc  app.o [1]
task_led_stk            0x20001a6c  0x140  Data  Lc  app.o [1]
task_manager_stk        0x20001cec  0x140  Data  Lc  app.o [1]


[1] = D:\Documents\Academics\ELEC3300\Lab\SmartHouse-System\Project\EWARMv5\STM3210E debug\Obj
[2] = command line
[3] = dl7M_tl_if.a
[4] = rt7M_tl.a
[5] = shb_l.a

  19 010 bytes of readonly  code memory
     933 bytes of readonly  data memory
   8 823 bytes of readwrite data memory

Errors: none
Warnings: none
